; ModuleID = '28/234.c'
source_filename = "28/234.c"
target datalayout = "e-m:e-p270:32:32-p271:32:32-p272:64:64-i64:64-f80:128-n8:16:32:64-S128"
target triple = "x86_64-pc-linux-gnu"

@.str = private unnamed_addr constant [4 x i8] c",%d\00", align 1
@.str.1 = private unnamed_addr constant [3 x i8] c"%d\00", align 1

; Function Attrs: noinline nounwind uwtable
define dso_local void @main() #0 {
  %1 = alloca [5000 x i8], align 16
  %2 = alloca i32, align 4
  %3 = alloca i32, align 4
  %4 = alloca i32, align 4
  %5 = alloca i32, align 4
  %6 = alloca i32, align 4
  %7 = alloca i32, align 4
  store i32 0, i32* %2, align 4
  store i32 0, i32* %4, align 4
  store i32 0, i32* %5, align 4
  store i32 0, i32* %6, align 4
  store i32 0, i32* %7, align 4
  %8 = getelementptr inbounds [5000 x i8], [5000 x i8]* %1, i64 0, i64 0
  %9 = call i32 (i8*, ...) bitcast (i32 (...)* @gets to i32 (i8*, ...)*)(i8* %8)
  store i32 0, i32* %3, align 4
  br label %10

10:                                               ; preds = %22, %0
  %11 = load i32, i32* %3, align 4
  %12 = sext i32 %11 to i64
  %13 = getelementptr inbounds [5000 x i8], [5000 x i8]* %1, i64 0, i64 %12
  %14 = load i8, i8* %13, align 1
  %15 = sext i8 %14 to i32
  %16 = icmp ne i32 %15, 0
  br i1 %16, label %17, label %20

17:                                               ; preds = %10
  %18 = load i32, i32* %2, align 4
  %19 = add nsw i32 %18, 1
  store i32 %19, i32* %2, align 4
  br label %21

20:                                               ; preds = %10
  br label %25

21:                                               ; preds = %17
  br label %22

22:                                               ; preds = %21
  %23 = load i32, i32* %3, align 4
  %24 = add nsw i32 %23, 1
  store i32 %24, i32* %3, align 4
  br label %10

25:                                               ; preds = %20
  store i32 0, i32* %3, align 4
  br label %26

26:                                               ; preds = %64, %25
  %27 = load i32, i32* %3, align 4
  %28 = load i32, i32* %2, align 4
  %29 = icmp sle i32 %27, %28
  br i1 %29, label %30, label %67

30:                                               ; preds = %26
  %31 = load i32, i32* %3, align 4
  %32 = sext i32 %31 to i64
  %33 = getelementptr inbounds [5000 x i8], [5000 x i8]* %1, i64 0, i64 %32
  %34 = load i8, i8* %33, align 1
  %35 = sext i8 %34 to i32
  %36 = icmp ne i32 %35, 32
  br i1 %36, label %37, label %47

37:                                               ; preds = %30
  %38 = load i32, i32* %3, align 4
  %39 = sext i32 %38 to i64
  %40 = getelementptr inbounds [5000 x i8], [5000 x i8]* %1, i64 0, i64 %39
  %41 = load i8, i8* %40, align 1
  %42 = sext i8 %41 to i32
  %43 = icmp ne i32 %42, 0
  br i1 %43, label %44, label %47

44:                                               ; preds = %37
  %45 = load i32, i32* %4, align 4
  %46 = add nsw i32 %45, 1
  store i32 %46, i32* %4, align 4
  store i32 1, i32* %7, align 4
  br label %64

47:                                               ; preds = %37, %30
  %48 = load i32, i32* %5, align 4
  %49 = icmp ne i32 %48, 0
  br i1 %49, label %50, label %56

50:                                               ; preds = %47
  %51 = load i32, i32* %7, align 4
  %52 = icmp ne i32 %51, 0
  br i1 %52, label %53, label %56

53:                                               ; preds = %50
  %54 = load i32, i32* %4, align 4
  %55 = call i32 (i8*, ...) @printf(i8* getelementptr inbounds ([4 x i8], [4 x i8]* @.str, i64 0, i64 0), i32 %54)
  br label %63

56:                                               ; preds = %50, %47
  %57 = load i32, i32* %7, align 4
  %58 = icmp ne i32 %57, 0
  br i1 %58, label %59, label %62

59:                                               ; preds = %56
  %60 = load i32, i32* %4, align 4
  %61 = call i32 (i8*, ...) @printf(i8* getelementptr inbounds ([3 x i8], [3 x i8]* @.str.1, i64 0, i64 0), i32 %60)
  store i32 1, i32* %5, align 4
  br label %62

62:                                               ; preds = %59, %56
  br label %63

63:                                               ; preds = %62, %53
  store i32 0, i32* %4, align 4
  store i32 0, i32* %7, align 4
  br label %64

64:                                               ; preds = %63, %44
  %65 = load i32, i32* %3, align 4
  %66 = add nsw i32 %65, 1
  store i32 %66, i32* %3, align 4
  br label %26

67:                                               ; preds = %26
  ret void
}

declare dso_local i32 @gets(...) #1

declare dso_local i32 @printf(i8*, ...) #1


!llvm.module.flags = !{!0}
!llvm.ident = !{!1}

!0 = !{i32 1, !"wchar_size", i32 4}
!1 = !{!"clang version 10.0.0-4ubuntu1 "}
